ccopy_reg
_reconstructor
p1
(cpsychopy.data
ExperimentHandler
p2
c__builtin__
object
p3
NtRp4
(dp5
S'originPath'
p6
V/Users/dbl-a/psychopy-experiments/MRI-nBack/MRI-nBack.psyexp
p7
sS'dataFileName'
p8
V/Users/dbl-a/psychopy-experiments/MRI-nBack/data/100_Rosvold CPT_2015_Feb_10_1258
p9
sS'runtimeInfo'
p10
NsS'name'
p11
S'Rosvold CPT'
p12
sS'dataNames'
p13
(lp14
sS'autoLog'
p15
I01
sS'extraInfo'
p16
(dp17
Vparticipant
p18
V100
p19
sVGender
p20
Vfemale
p21
sVHandedness
p22
VRight
p23
sS'frameRate'
p24
cnumpy.core.multiarray
scalar
p25
(cnumpy
dtype
p26
(S'f8'
I0
I1
tRp27
(I3
S'<'
NNNI-1
I-1
I0
tbS'B\xb9\xfb\xc6\x88\xeaM@'
tRp28
sS'expName'
p29
g12
sS'date'
p30
V2015_Feb_10_1258
p31
ssS'loopsUnfinished'
p32
(lp33
sS'saveWideText'
p34
I01
sS'thisEntry'
p35
(dp36
sS'version'
p37
S''
sS'_paramNamesSoFar'
p38
(lp39
sS'entries'
p40
(lp41
sS'loops'
p42
(lp43
sS'savePickle'
p44
I01
sb.