ccopy_reg
_reconstructor
p1
(cpsychopy.data
ExperimentHandler
p2
c__builtin__
object
p3
NtRp4
(dp5
S'originPath'
p6
V/Users/dbl-a/psychopy-experiments/MRI-nBack/MRI-nBack.psyexp
p7
sS'dataFileName'
p8
V/Users/dbl-a/psychopy-experiments/MRI-nBack/data/100_Rosvold CPT_2015_Feb_10_1300
p9
sS'runtimeInfo'
p10
NsS'name'
p11
S'Rosvold CPT'
p12
sS'dataNames'
p13
(lp14
S'key_resp_18.keys'
p15
aS'key_resp_18.rt'
p16
asS'autoLog'
p17
I01
sS'extraInfo'
p18
(dp19
Vparticipant
p20
V100
p21
sVGender
p22
Vfemale
p23
sVHandedness
p24
VRight
p25
sS'frameRate'
p26
cnumpy.core.multiarray
scalar
p27
(cnumpy
dtype
p28
(S'f8'
I0
I1
tRp29
(I3
S'<'
NNNI-1
I-1
I0
tbS'\x8bv\xb2\x85\x10\xeaM@'
tRp30
sS'expName'
p31
g12
sS'date'
p32
V2015_Feb_10_1300
p33
ssS'loopsUnfinished'
p34
(lp35
sS'saveWideText'
p36
I01
sS'thisEntry'
p37
(dp38
sS'version'
p39
S''
sS'_paramNamesSoFar'
p40
(lp41
sS'entries'
p42
(lp43
(dp44
g20
g21
sg22
g23
sg24
g25
sg26
g30
sg31
g12
sg16
F2.0690100193023682
sg32
g33
sg15
S'escape'
p45
sasS'loops'
p46
(lp47
sS'savePickle'
p48
I01
sb.