ccopy_reg
_reconstructor
p1
(cpsychopy.data
ExperimentHandler
p2
c__builtin__
object
p3
NtRp4
(dp5
S'originPath'
p6
V/Users/dbl-a/psychopy-experiments/MRI-nBack/MRI-nBack.psyexp
p7
sS'dataFileName'
p8
V/Users/dbl-a/psychopy-experiments/MRI-nBack/data/100_Rosvold CPT_2015_Feb_10_1330
p9
sS'runtimeInfo'
p10
NsS'name'
p11
S'Rosvold CPT'
p12
sS'dataNames'
p13
(lp14
S'key_resp_18.keys'
p15
aS'key_resp_18.rt'
p16
aS'key_resp_17.keys'
p17
aS'key_resp_17.rt'
p18
aS'key_resp_2.keys'
p19
aS'key_resp_2.rt'
p20
aS'key_resp_7.keys'
p21
aS'key_resp_7.rt'
p22
asS'autoLog'
p23
I01
sS'extraInfo'
p24
(dp25
Vparticipant
p26
V100
p27
sVGender
p28
Vfemale
p29
sVHandedness
p30
VRight
p31
sS'frameRate'
p32
cnumpy.core.multiarray
scalar
p33
(cnumpy
dtype
p34
(S'f8'
I0
I1
tRp35
(I3
S'<'
NNNI-1
I-1
I0
tbS'\x18\xff>\x98\xd8\xe9M@'
tRp36
sS'expName'
p37
g12
sS'date'
p38
V2015_Feb_10_1330
p39
ssS'loopsUnfinished'
p40
(lp41
sS'saveWideText'
p42
I01
sS'thisEntry'
p43
(dp44
sS'version'
p45
S''
sS'_paramNamesSoFar'
p46
(lp47
sS'entries'
p48
(lp49
(dp50
g26
g27
sg28
g29
sg30
g31
sg32
g36
sg37
g12
sg16
F0.35114598274230957
sg38
g39
sg15
S'space'
p51
sa(dp52
g17
S'space'
p53
sg26
g27
sg28
g29
sg30
g31
sg32
g36
sg18
F0.65109610557556152
sg37
g12
sg38
g39
sa(dp54
g20
F0.43444490432739258
sg26
g27
sg28
g29
sg30
g31
sg32
g36
sg19
S'space'
p55
sg37
g12
sg38
g39
sa(dp56
g26
g27
sg22
F0.61821794509887695
sg30
g31
sg32
g36
sg37
g12
sg21
S'escape'
p57
sg28
g29
sg38
g39
sasS'loops'
p58
(lp59
sS'savePickle'
p60
I01
sb.